target datalayout = "e-m:e-p270:32:32-p271:32:32-p272:64:64-i64:64-i128:128-f80:128-n8:16:32:64-S128"
target triple = "x86_64-pc-linux-gnu"

%struct.ParseState = type { ptr, ptr, i32, i32, ptr, ptr, ptr, ptr, ptr, ptr, i8, ptr, ptr, ptr, ptr, ptr, ptr, i8, ptr, i32, i32, ptr, ptr, i8, i8, ptr, i8, i8, i8, i8, i8, ptr, ptr, ptr, ptr, ptr, ptr }
%struct.Expr = type { i32 }
%struct.TargetEntry = type { %struct.Expr, ptr, i16, ptr, i32, i32, i16, i8 }

@.str.1 = private unnamed_addr constant [15 x i8] c"parse_clause.c\00", align 1
@.str.65 = private unnamed_addr constant [42 x i8] c"aggregate functions are not allowed in %s\00", align 1
@__func__.checkTargetlistEntrySQL92 = private unnamed_addr constant [26 x i8] c"checkTargetlistEntrySQL92\00", align 1
@.str.66 = private unnamed_addr constant [39 x i8] c"window functions are not allowed in %s\00", align 1
@.str.67 = private unnamed_addr constant [49 x i8] c"unexpected exprKind in checkTargetlistEntrySQL92\00", align 1

; Function Attrs: nounwind uwtable
define internal void @checkTargetlistEntrySQL92(ptr noundef %0, ptr noundef %1, i32 noundef %2) #0 {
  %4 = alloca ptr, align 8
  %5 = alloca ptr, align 8
  %6 = alloca i32, align 4
  store ptr %0, ptr %4, align 8
  store ptr %1, ptr %5, align 8
  store i32 %2, ptr %6, align 4
  %7 = load i32, ptr %6, align 4
  switch i32 %7, label %67 [
    i32 19, label %8
    i32 20, label %77
    i32 21, label %77
  ]

8:                                                ; preds = %3
  %9 = load ptr, ptr %4, align 8
  %10 = getelementptr inbounds nuw %struct.ParseState, ptr %9, i32 0, i32 26
  %11 = load i8, ptr %10, align 8, !range !6, !noundef !7
  %12 = trunc i8 %11 to i1
  br i1 %12, label %13, label %37

13:                                               ; preds = %8
  %14 = load ptr, ptr %5, align 8
  %15 = getelementptr inbounds nuw %struct.TargetEntry, ptr %14, i32 0, i32 1
  %16 = load ptr, ptr %15, align 8
  %17 = call zeroext i1 @contain_aggs_of_level(ptr noundef %16, i32 noundef 0)
  br i1 %17, label %18, label %37

18:                                               ; preds = %13
  br label %19

19:                                               ; preds = %18
  br i1 true, label %20, label %22

20:                                               ; preds = %19
  %21 = call zeroext i1 @errstart_cold(i32 noundef 21, ptr noundef null) #9
  br i1 %21, label %24, label %35

22:                                               ; preds = %19
  %23 = call zeroext i1 @errstart(i32 noundef 21, ptr noundef null)
  br i1 %23, label %24, label %35

24:                                               ; preds = %22, %20
  %25 = call i32 @errcode(i32 noundef 50364548)
  %26 = load i32, ptr %6, align 4
  %27 = call ptr @ParseExprKindName(i32 noundef %26)
  %28 = call i32 (ptr, ...) @errmsg(ptr noundef @.str.65, ptr noundef %27)
  %29 = load ptr, ptr %4, align 8
  %30 = load ptr, ptr %5, align 8
  %31 = getelementptr inbounds nuw %struct.TargetEntry, ptr %30, i32 0, i32 1
  %32 = load ptr, ptr %31, align 8
  %33 = call i32 @locate_agg_of_level(ptr noundef %32, i32 noundef 0)
  %34 = call i32 @parser_errposition(ptr noundef %29, i32 noundef %33)
  call void @errfinish(ptr noundef @.str.1, i32 noundef 1965, ptr noundef @__func__.checkTargetlistEntrySQL92)
  br label %35

35:                                               ; preds = %24, %22, %20
  unreachable

36:                                               ; No predecessors!
  br label %37

37:                                               ; preds = %36, %13, %8
  %38 = load ptr, ptr %4, align 8
  %39 = getelementptr inbounds nuw %struct.ParseState, ptr %38, i32 0, i32 27
  %40 = load i8, ptr %39, align 1, !range !6, !noundef !7
  %41 = trunc i8 %40 to i1
  br i1 %41, label %42, label %66

42:                                               ; preds = %37
  %43 = load ptr, ptr %5, align 8
  %44 = getelementptr inbounds nuw %struct.TargetEntry, ptr %43, i32 0, i32 1
  %45 = load ptr, ptr %44, align 8
  %46 = call zeroext i1 @contain_windowfuncs(ptr noundef %45)
  br i1 %46, label %47, label %66

47:                                               ; preds = %42
  br label %48

48:                                               ; preds = %47
  br i1 true, label %49, label %51

49:                                               ; preds = %48
  %50 = call zeroext i1 @errstart_cold(i32 noundef 21, ptr noundef null) #9
  br i1 %50, label %53, label %64

51:                                               ; preds = %48
  %52 = call zeroext i1 @errstart(i32 noundef 21, ptr noundef null)
  br i1 %52, label %53, label %64

53:                                               ; preds = %51, %49
  %54 = call i32 @errcode(i32 noundef 655492)
  %55 = load i32, ptr %6, align 4
  %56 = call ptr @ParseExprKindName(i32 noundef %55)
  %57 = call i32 (ptr, ...) @errmsg(ptr noundef @.str.66, ptr noundef %56)
  %58 = load ptr, ptr %4, align 8
  %59 = load ptr, ptr %5, align 8
  %60 = getelementptr inbounds nuw %struct.TargetEntry, ptr %59, i32 0, i32 1
  %61 = load ptr, ptr %60, align 8
  %62 = call i32 @locate_windowfunc(ptr noundef %61)
  %63 = call i32 @parser_errposition(ptr noundef %58, i32 noundef %62)
  call void @errfinish(ptr noundef @.str.1, i32 noundef 1974, ptr noundef @__func__.checkTargetlistEntrySQL92)
  br label %64

64:                                               ; preds = %53, %51, %49
  unreachable

65:                                               ; No predecessors!
  br label %66

66:                                               ; preds = %65, %42, %37
  br label %77

67:                                               ; preds = %3
  br label %68

68:                                               ; preds = %67
  br i1 true, label %69, label %71

69:                                               ; preds = %68
  %70 = call zeroext i1 @errstart_cold(i32 noundef 21, ptr noundef null) #9
  br i1 %70, label %73, label %75

71:                                               ; preds = %68
  %72 = call zeroext i1 @errstart(i32 noundef 21, ptr noundef null)
  br i1 %72, label %73, label %75

73:                                               ; preds = %71, %69
  %74 = call i32 (ptr, ...) @errmsg_internal(ptr noundef @.str.67)
  call void @errfinish(ptr noundef @.str.1, i32 noundef 1983, ptr noundef @__func__.checkTargetlistEntrySQL92)
  br label %75

75:                                               ; preds = %73, %71, %69
  unreachable

76:                                               ; No predecessors!
  br label %77

77:                                               ; preds = %76, %3, %3, %66
  ret void
}