; Function Attrs: nounwind uwtable
define internal fastcc void @checkTargetlistEntrySQL92(ptr noundef %0, ptr noundef readonly captures(none) %1, i32 noundef %2) unnamed_addr #0 {
  switch i32 %2, label %36 [
    i32 19, label %4
    i32 20, label %39
    i32 21, label %39
  ]

4:                                                ; preds = %3
  %5 = getelementptr inbounds nuw i8, ptr %0, i64 184
  %6 = load i8, ptr %5, align 8, !range !4, !noundef !5
  %7 = trunc nuw i8 %6 to i1
  br i1 %7, label %8, label %20

8:                                                ; preds = %4
  %9 = getelementptr inbounds nuw i8, ptr %1, i64 8
  %10 = load ptr, ptr %9, align 8
  %11 = tail call zeroext i1 @contain_aggs_of_level(ptr noundef %10, i32 noundef 0) #9
  br i1 %11, label %12, label %20

12:                                               ; preds = %8
  %13 = tail call zeroext i1 @errstart_cold(i32 noundef 21, ptr noundef null) #10
  tail call void @llvm.assume(i1 %13)
  %14 = tail call i32 @errcode(i32 noundef 50364548) #9
  %15 = tail call ptr @ParseExprKindName(i32 noundef 19) #9
  %16 = tail call i32 (ptr, ...) @errmsg(ptr noundef nonnull @.str.65, ptr noundef %15) #9
  %17 = load ptr, ptr %9, align 8
  %18 = tail call i32 @locate_agg_of_level(ptr noundef %17, i32 noundef 0) #9
  %19 = tail call i32 @parser_errposition(ptr noundef nonnull %0, i32 noundef %18) #9
  tail call void @errfinish(ptr noundef nonnull @.str.1, i32 noundef 1965, ptr noundef nonnull @__func__.checkTargetlistEntrySQL92) #9
  unreachable

20:                                               ; preds = %8, %4
  %21 = getelementptr inbounds nuw i8, ptr %0, i64 185
  %22 = load i8, ptr %21, align 1, !range !4, !noundef !5
  %23 = trunc nuw i8 %22 to i1
  br i1 %23, label %24, label %39

24:                                               ; preds = %20
  %25 = getelementptr inbounds nuw i8, ptr %1, i64 8
  %26 = load ptr, ptr %25, align 8
  %27 = tail call zeroext i1 @contain_windowfuncs(ptr noundef %26) #9
  br i1 %27, label %28, label %39

28:                                               ; preds = %24
  %29 = tail call zeroext i1 @errstart_cold(i32 noundef 21, ptr noundef null) #10
  tail call void @llvm.assume(i1 %29)
  %30 = tail call i32 @errcode(i32 noundef 655492) #9
  %31 = tail call ptr @ParseExprKindName(i32 noundef 19) #9
  %32 = tail call i32 (ptr, ...) @errmsg(ptr noundef nonnull @.str.66, ptr noundef %31) #9
  %33 = load ptr, ptr %25, align 8
  %34 = tail call i32 @locate_windowfunc(ptr noundef %33) #9
  %35 = tail call i32 @parser_errposition(ptr noundef nonnull %0, i32 noundef %34) #9
  tail call void @errfinish(ptr noundef nonnull @.str.1, i32 noundef 1974, ptr noundef nonnull @__func__.checkTargetlistEntrySQL92) #9
  unreachable

36:                                               ; preds = %3
  %37 = tail call zeroext i1 @errstart_cold(i32 noundef 21, ptr noundef null) #10
  tail call void @llvm.assume(i1 %37)
  %38 = tail call i32 (ptr, ...) @errmsg_internal(ptr noundef nonnull @.str.67) #9
  tail call void @errfinish(ptr noundef nonnull @.str.1, i32 noundef 1983, ptr noundef nonnull @__func__.checkTargetlistEntrySQL92) #9
  unreachable

39:                                               ; preds = %20, %24, %3, %3
  ret void
}